target datalayout = "e-m:e-p270:32:32-p271:32:32-p272:64:64-i64:64-i128:128-f80:128-n8:16:32:64-S128"
target triple = "x86_64-pc-linux-gnu"

%"class.llvm::MachineIRBuilder" = type { ptr, %"struct.llvm::MachineIRBuilderState" }
%"struct.llvm::MachineIRBuilderState" = type { ptr, ptr, ptr, %"class.llvm::DebugLoc", ptr, ptr, ptr, %"class.llvm::MachineInstrBundleIterator", ptr, ptr }
%"class.llvm::DebugLoc" = type { %"class.llvm::TypedTrackingMDRef" }
%"class.llvm::TypedTrackingMDRef" = type { %"class.llvm::TrackingMDRef" }
%"class.llvm::TrackingMDRef" = type { ptr }
%"class.llvm::MachineInstrBundleIterator" = type { %"class.llvm::ilist_iterator" }
%"class.llvm::ilist_iterator" = type { ptr }
%"class.llvm::MachineInstr" = type <{ %"class.llvm::ilist_node_with_parent", ptr, ptr, ptr, [3 x i8], %"class.llvm::ArrayRecycler<llvm::MachineOperand>::Capacity", i32, %"class.llvm::PointerSumType", %"class.llvm::DebugLoc", i32, i16, [2 x i8] }>
%"class.llvm::ilist_node_with_parent" = type { %"class.llvm::ilist_node.275" }
%"class.llvm::ilist_node.275" = type { %"class.llvm::ilist_node_impl.276" }
%"class.llvm::ilist_node_impl.276" = type { %"class.llvm::ilist_node_base.277" }
%"class.llvm::ilist_node_base.277" = type { %"class.llvm::ilist_detail::node_base_prevnext.278" }
%"class.llvm::ilist_detail::node_base_prevnext.278" = type { %"class.llvm::PointerIntPair", ptr }
%"class.llvm::PointerIntPair" = type { %"struct.llvm::detail::PunnedPointer" }
%"struct.llvm::detail::PunnedPointer" = type { [8 x i8] }
%"class.llvm::ArrayRecycler<llvm::MachineOperand>::Capacity" = type { i8 }
%"class.llvm::PointerSumType" = type { %"union.llvm::PointerSumType<llvm::MachineInstr::ExtraInfoInlineKinds, llvm::PointerSumTypeMember<0, llvm::MachineMemOperand *>, llvm::PointerSumTypeMember<1, llvm::MCSymbol *>, llvm::PointerSumTypeMember<2, llvm::MCSymbol *>, llvm::PointerSumTypeMember<3, llvm::MachineInstr::ExtraInfo *>>::StorageT" }
%"union.llvm::PointerSumType<llvm::MachineInstr::ExtraInfoInlineKinds, llvm::PointerSumTypeMember<0, llvm::MachineMemOperand *>, llvm::PointerSumTypeMember<1, llvm::MCSymbol *>, llvm::PointerSumTypeMember<2, llvm::MCSymbol *>, llvm::PointerSumTypeMember<3, llvm::MachineInstr::ExtraInfo *>>::StorageT" = type { i64 }
%class.anon.512 = type { ptr, ptr }
%"class.llvm::ilist_iterator.514" = type { ptr }

; Function Attrs: mustprogress nounwind uwtable
define linkonce_odr hidden noundef ptr @_ZN4llvm12ilist_detail10NodeAccess10getNodePtrINS0_12node_optionsINS_12MachineInstrELb1ELb1EvLb0EvEEEEPKNS_15ilist_node_implIT_EENS7_13const_pointerE(ptr noundef %0) #0 comdat align 2 {
  %2 = alloca ptr, align 8
  store ptr %0, ptr %2, align 8
  %3 = load ptr, ptr %2, align 8
  ret ptr %3
}

; Function Attrs: mustprogress nounwind uwtable
define linkonce_odr hidden noundef ptr @_ZNK4llvm12ilist_detail18node_base_prevnextINS_15ilist_node_baseILb1EvEELb1EE7getNextEv(ptr noundef nonnull align 8 dereferenceable(16) %0) #0 comdat align 2 {
  %2 = alloca ptr, align 8
  store ptr %0, ptr %2, align 8
  %3 = load ptr, ptr %2, align 8
  %4 = getelementptr inbounds nuw %"class.llvm::ilist_detail::node_base_prevnext.278", ptr %3, i32 0, i32 1
  %5 = load ptr, ptr %4, align 8
  ret ptr %5
}

; Function Attrs: mustprogress nounwind uwtable
define linkonce_odr hidden noundef zeroext i1 @_ZN4llvmeqERKNS_14ilist_iteratorINS_12ilist_detail12node_optionsINS_12MachineInstrELb1ELb1EvLb0EvEELb0ELb1EEES7_(ptr noundef nonnull align 8 dereferenceable(8) %0, ptr noundef nonnull align 8 dereferenceable(8) %1) #0 comdat {
  %3 = alloca ptr, align 8
  %4 = alloca ptr, align 8
  store ptr %0, ptr %3, align 8
  store ptr %1, ptr %4, align 8
  %5 = load ptr, ptr %3, align 8
  %6 = getelementptr inbounds nuw %"class.llvm::ilist_iterator.514", ptr %5, i32 0, i32 0
  %7 = load ptr, ptr %6, align 8
  %8 = load ptr, ptr %4, align 8
  %9 = getelementptr inbounds nuw %"class.llvm::ilist_iterator.514", ptr %8, i32 0, i32 0
  %10 = load ptr, ptr %9, align 8
  %11 = icmp eq ptr %7, %10
  ret i1 %11
}

; Function Attrs: mustprogress nounwind uwtable
define linkonce_odr hidden void @_ZN4llvm14ilist_iteratorINS_12ilist_detail12node_optionsINS_12MachineInstrELb1ELb1EvLb0EvEELb0ELb1EEC2ILb0EEERKNS0_IS4_Lb0EXT_EEENSt9enable_ifIXooLb1EntT_EPvE4typeE(ptr noundef nonnull align 8 dereferenceable(8) %0, ptr noundef nonnull align 8 dereferenceable(8) %1, ptr noundef %2) unnamed_addr #0 comdat align 2 {
  %4 = alloca ptr, align 8
  %5 = alloca ptr, align 8
  %6 = alloca ptr, align 8
  store ptr %0, ptr %4, align 8
  store ptr %1, ptr %5, align 8
  store ptr %2, ptr %6, align 8
  %7 = load ptr, ptr %4, align 8
  %8 = getelementptr inbounds nuw %"class.llvm::ilist_iterator.514", ptr %7, i32 0, i32 0
  %9 = load ptr, ptr %5, align 8
  %10 = getelementptr inbounds nuw %"class.llvm::ilist_iterator", ptr %9, i32 0, i32 0
  %11 = load ptr, ptr %10, align 8
  store ptr %11, ptr %8, align 8
  ret void
}

; Function Attrs: mustprogress nounwind uwtable
define linkonce_odr hidden noundef ptr @_ZN4llvm12ilist_detail18SpecificNodeAccessINS0_12node_optionsINS_12MachineInstrELb1ELb1EvLb0EvEEE10getNodePtrEPKS3_(ptr noundef %0) #0 comdat align 2 {
  %2 = alloca ptr, align 8
  store ptr %0, ptr %2, align 8
  %3 = load ptr, ptr %2, align 8
  %4 = call noundef ptr @_ZN4llvm12ilist_detail10NodeAccess10getNodePtrINS0_12node_optionsINS_12MachineInstrELb1ELb1EvLb0EvEEEEPKNS_15ilist_node_implIT_EENS7_13const_pointerE(ptr noundef %3)
  ret ptr %4
}

; Function Attrs: mustprogress nounwind uwtable
define linkonce_odr hidden noundef ptr @_ZN4llvm15ilist_node_implINS_12ilist_detail12node_optionsINS_12MachineInstrELb1ELb1EvLb0EvEEE7getNextEv(ptr noundef nonnull align 8 dereferenceable(16) %0) #0 comdat align 2 {
  %2 = alloca ptr, align 8
  store ptr %0, ptr %2, align 8
  %3 = load ptr, ptr %2, align 8
  %4 = call noundef ptr @_ZNK4llvm12ilist_detail18node_base_prevnextINS_15ilist_node_baseILb1EvEELb1EE7getNextEv(ptr noundef nonnull align 8 dereferenceable(16) %3)
  ret ptr %4
}

; Function Attrs: mustprogress nounwind uwtable
define linkonce_odr hidden void @_ZN4llvm14ilist_iteratorINS_12ilist_detail12node_optionsINS_12MachineInstrELb1ELb1EvLb0EvEELb0ELb0EEC2ERNS_15ilist_node_implIS4_EE(ptr noundef nonnull align 8 dereferenceable(8) %0, ptr noundef nonnull align 8 dereferenceable(16) %1) unnamed_addr #0 comdat align 2 {
  %3 = alloca ptr, align 8
  %4 = alloca ptr, align 8
  store ptr %0, ptr %3, align 8
  store ptr %1, ptr %4, align 8
  %5 = load ptr, ptr %3, align 8
  %6 = getelementptr inbounds nuw %"class.llvm::ilist_iterator", ptr %5, i32 0, i32 0
  %7 = load ptr, ptr %4, align 8
  store ptr %7, ptr %6, align 8
  ret void
}

; Function Attrs: mustprogress nounwind uwtable
define linkonce_odr hidden noundef zeroext i1 @_ZN4llvmeqERKNS_26MachineInstrBundleIteratorINS_12MachineInstrELb0EEERKNS_14ilist_iteratorINS_12ilist_detail12node_optionsIS1_Lb1ELb1EvLb0EvEELb0ELb1EEE(ptr noundef nonnull align 8 dereferenceable(8) %0, ptr noundef nonnull align 8 dereferenceable(8) %1) #0 comdat {
  %3 = alloca ptr, align 8
  %4 = alloca ptr, align 8
  %5 = alloca %"class.llvm::ilist_iterator.514", align 8
  store ptr %0, ptr %3, align 8
  store ptr %1, ptr %4, align 8
  %6 = load ptr, ptr %3, align 8
  %7 = getelementptr inbounds nuw %"class.llvm::MachineInstrBundleIterator", ptr %6, i32 0, i32 0
  call void @_ZN4llvm14ilist_iteratorINS_12ilist_detail12node_optionsINS_12MachineInstrELb1ELb1EvLb0EvEELb0ELb1EEC2ILb0EEERKNS0_IS4_Lb0EXT_EEENSt9enable_ifIXooLb1EntT_EPvE4typeE(ptr noundef nonnull align 8 dereferenceable(8) %5, ptr noundef nonnull align 8 dereferenceable(8) %7, ptr noundef null)
  %8 = load ptr, ptr %4, align 8
  %9 = call noundef zeroext i1 @_ZN4llvmeqERKNS_14ilist_iteratorINS_12ilist_detail12node_optionsINS_12MachineInstrELb1ELb1EvLb0EvEELb0ELb1EEES7_(ptr noundef nonnull align 8 dereferenceable(8) %5, ptr noundef nonnull align 8 dereferenceable(8) %8)
  ret i1 %9
}

; Function Attrs: mustprogress nounwind uwtable
define linkonce_odr hidden void @_ZN4llvm14ilist_iteratorINS_12ilist_detail12node_optionsINS_12MachineInstrELb1ELb1EvLb0EvEELb0ELb1EEC2EPKS3_(ptr noundef nonnull align 8 dereferenceable(8) %0, ptr noundef %1) unnamed_addr #0 comdat align 2 {
  %3 = alloca ptr, align 8
  %4 = alloca ptr, align 8
  store ptr %0, ptr %3, align 8
  store ptr %1, ptr %4, align 8
  %5 = load ptr, ptr %3, align 8
  %6 = getelementptr inbounds nuw %"class.llvm::ilist_iterator.514", ptr %5, i32 0, i32 0
  %7 = load ptr, ptr %4, align 8
  %8 = call noundef ptr @_ZN4llvm12ilist_detail18SpecificNodeAccessINS0_12node_optionsINS_12MachineInstrELb1ELb1EvLb0EvEEE10getNodePtrEPKS3_(ptr noundef %7)
  store ptr %8, ptr %6, align 8
  ret void
}

; Function Attrs: mustprogress nounwind uwtable
define linkonce_odr hidden void @_ZN4llvm16MachineIRBuilder11setInsertPtERNS_17MachineBasicBlockENS_26MachineInstrBundleIteratorINS_12MachineInstrELb0EEE(ptr noundef nonnull align 8 dereferenceable(88) %0, ptr noundef nonnull align 8 dereferenceable(288) %1, ptr %2) #0 comdat align 2 {
  %4 = alloca %"class.llvm::MachineInstrBundleIterator", align 8
  %5 = alloca ptr, align 8
  %6 = alloca ptr, align 8
  %7 = getelementptr inbounds nuw %"class.llvm::MachineInstrBundleIterator", ptr %4, i32 0, i32 0
  %8 = getelementptr inbounds nuw %"class.llvm::ilist_iterator", ptr %7, i32 0, i32 0
  store ptr %2, ptr %8, align 8
  store ptr %0, ptr %5, align 8
  store ptr %1, ptr %6, align 8
  %9 = load ptr, ptr %5, align 8
  %10 = load ptr, ptr %6, align 8
  %11 = getelementptr inbounds nuw %"class.llvm::MachineIRBuilder", ptr %9, i32 0, i32 1
  %12 = getelementptr inbounds nuw %"struct.llvm::MachineIRBuilderState", ptr %11, i32 0, i32 6
  store ptr %10, ptr %12, align 8
  %13 = getelementptr inbounds nuw %"class.llvm::MachineIRBuilder", ptr %9, i32 0, i32 1
  %14 = getelementptr inbounds nuw %"struct.llvm::MachineIRBuilderState", ptr %13, i32 0, i32 7
  call void @llvm.memcpy.p0.p0.i64(ptr align 8 %14, ptr align 8 %4, i64 8, i1 false)
  ret void
}

; Function Attrs: mustprogress nounwind uwtable
define linkonce_odr hidden void @_ZN4llvm26MachineInstrBundleIteratorINS_12MachineInstrELb0EEC2ENS_14ilist_iteratorINS_12ilist_detail12node_optionsIS1_Lb1ELb1EvLb0EvEELb0ELb0EEE(ptr noundef nonnull align 8 dereferenceable(8) %0, ptr %1) unnamed_addr #0 comdat align 2 {
  %3 = alloca %"class.llvm::ilist_iterator", align 8
  %4 = alloca ptr, align 8
  %5 = getelementptr inbounds nuw %"class.llvm::ilist_iterator", ptr %3, i32 0, i32 0
  store ptr %1, ptr %5, align 8
  store ptr %0, ptr %4, align 8
  %6 = load ptr, ptr %4, align 8
  %7 = getelementptr inbounds nuw %"class.llvm::MachineInstrBundleIterator", ptr %6, i32 0, i32 0
  call void @llvm.memcpy.p0.p0.i64(ptr align 8 %7, ptr align 8 %3, i64 8, i1 false)
  ret void
}

; Function Attrs: mustprogress nounwind uwtable
define linkonce_odr hidden noundef nonnull align 8 dereferenceable(8) ptr @_ZN4llvm14ilist_iteratorINS_12ilist_detail12node_optionsINS_12MachineInstrELb1ELb1EvLb0EvEELb0ELb0EEppEv(ptr noundef nonnull align 8 dereferenceable(8) %0) #0 comdat align 2 {
  %2 = alloca ptr, align 8
  store ptr %0, ptr %2, align 8
  %3 = load ptr, ptr %2, align 8
  %4 = getelementptr inbounds nuw %"class.llvm::ilist_iterator", ptr %3, i32 0, i32 0
  %5 = load ptr, ptr %4, align 8
  %6 = call noundef ptr @_ZN4llvm15ilist_node_implINS_12ilist_detail12node_optionsINS_12MachineInstrELb1ELb1EvLb0EvEEE7getNextEv(ptr noundef nonnull align 8 dereferenceable(16) %5)
  %7 = getelementptr inbounds nuw %"class.llvm::ilist_iterator", ptr %3, i32 0, i32 0
  store ptr %6, ptr %7, align 8
  ret ptr %3
}

; Function Attrs: mustprogress nounwind uwtable
define linkonce_odr hidden ptr @_ZN4llvm15ilist_node_implINS_12ilist_detail12node_optionsINS_12MachineInstrELb1ELb1EvLb0EvEEE11getIteratorEv(ptr noundef nonnull align 8 dereferenceable(16) %0) #0 comdat align 2 {
  %2 = alloca %"class.llvm::ilist_iterator", align 8
  %3 = alloca ptr, align 8
  store ptr %0, ptr %3, align 8
  %4 = load ptr, ptr %3, align 8
  call void @_ZN4llvm14ilist_iteratorINS_12ilist_detail12node_optionsINS_12MachineInstrELb1ELb1EvLb0EvEELb0ELb0EEC2ERNS_15ilist_node_implIS4_EE(ptr noundef nonnull align 8 dereferenceable(8) %2, ptr noundef nonnull align 8 dereferenceable(16) %4)
  %5 = getelementptr inbounds nuw %"class.llvm::ilist_iterator", ptr %2, i32 0, i32 0
  %6 = load ptr, ptr %5, align 8
  ret ptr %6
}

; Function Attrs: mustprogress nounwind uwtable
define linkonce_odr hidden noundef ptr @_ZN4llvm12MachineInstr9getParentEv(ptr noundef nonnull align 8 dereferenceable(70) %0) #0 comdat align 2 {
  %2 = alloca ptr, align 8
  store ptr %0, ptr %2, align 8
  %3 = load ptr, ptr %2, align 8
  %4 = getelementptr inbounds nuw %"class.llvm::MachineInstr", ptr %3, i32 0, i32 2
  %5 = load ptr, ptr %4, align 8
  ret ptr %5
}

; Function Attrs: mustprogress nounwind uwtable
define linkonce_odr hidden noundef zeroext i1 @_ZN4llvmeqERKNS_26MachineInstrBundleIteratorINS_12MachineInstrELb0EEEPKS1_(ptr noundef nonnull align 8 dereferenceable(8) %0, ptr noundef %1) #0 comdat {
  %3 = alloca ptr, align 8
  %4 = alloca ptr, align 8
  %5 = alloca %"class.llvm::ilist_iterator.514", align 8
  store ptr %0, ptr %3, align 8
  store ptr %1, ptr %4, align 8
  %6 = load ptr, ptr %3, align 8
  %7 = load ptr, ptr %4, align 8
  call void @_ZN4llvm14ilist_iteratorINS_12ilist_detail12node_optionsINS_12MachineInstrELb1ELb1EvLb0EvEELb0ELb1EEC2EPKS3_(ptr noundef nonnull align 8 dereferenceable(8) %5, ptr noundef %7)
  %8 = call noundef zeroext i1 @_ZN4llvmeqERKNS_26MachineInstrBundleIteratorINS_12MachineInstrELb0EEERKNS_14ilist_iteratorINS_12ilist_detail12node_optionsIS1_Lb1ELb1EvLb0EvEELb0ELb1EEE(ptr noundef nonnull align 8 dereferenceable(8) %6, ptr noundef nonnull align 8 dereferenceable(8) %5)
  ret i1 %8
}

; Function Attrs: mustprogress nounwind uwtable
define linkonce_odr hidden ptr @_ZN4llvm16MachineIRBuilder11getInsertPtEv(ptr noundef nonnull align 8 dereferenceable(88) %0) #0 comdat align 2 {
  %2 = alloca %"class.llvm::MachineInstrBundleIterator", align 8
  %3 = alloca ptr, align 8
  store ptr %0, ptr %3, align 8
  %4 = load ptr, ptr %3, align 8
  %5 = getelementptr inbounds nuw %"class.llvm::MachineIRBuilder", ptr %4, i32 0, i32 1
  %6 = getelementptr inbounds nuw %"struct.llvm::MachineIRBuilderState", ptr %5, i32 0, i32 7
  call void @llvm.memcpy.p0.p0.i64(ptr align 8 %2, ptr align 8 %6, i64 8, i1 false)
  %7 = getelementptr inbounds nuw %"class.llvm::MachineInstrBundleIterator", ptr %2, i32 0, i32 0
  %8 = getelementptr inbounds nuw %"class.llvm::ilist_iterator", ptr %7, i32 0, i32 0
  %9 = load ptr, ptr %8, align 8
  ret ptr %9
}

; Function Attrs: mustprogress nounwind uwtable
define internal void @_ZZNK4llvm20GIMatchTableExecutor17executeMatchTableIKN12_GLOBAL__N_124RISCVInstructionSelectorENS_6BitsetILj89EEEMS3_KFSt8optionalINS_11SmallVectorISt8functionIFvRNS_19MachineInstrBuilderEEELj4EEEERNS_14MachineOperandEEMS3_KFvSB_RKNS_12MachineInstrEiEEEbRT_RNS0_12MatcherStateERKNS0_10ExecInfoTyIT0_T1_T2_EERNS_16MachineIRBuilderEPKhRKNS_15TargetInstrInfoERNS_19MachineRegisterInfoERKNS_18TargetRegisterInfoERKNS_16RegisterBankInfoERKSU_PNS_15CodeGenCoverageEENKUlPSK_E_clES1J_(ptr noundef nonnull align 8 dereferenceable(16) %0, ptr noundef %1) #0 align 2 {
  %3 = alloca ptr, align 8
  %4 = alloca ptr, align 8
  %5 = alloca %"class.llvm::MachineInstrBundleIterator", align 8
  %6 = alloca %"class.llvm::MachineInstrBundleIterator", align 8
  %7 = alloca %"class.llvm::ilist_iterator", align 8
  %8 = alloca %"class.llvm::ilist_iterator", align 8
  store ptr %0, ptr %3, align 8
  store ptr %1, ptr %4, align 8
  %9 = load ptr, ptr %3, align 8
  %10 = getelementptr inbounds nuw %class.anon.512, ptr %9, i32 0, i32 0
  %11 = load ptr, ptr %10, align 8
  %12 = call ptr @_ZN4llvm16MachineIRBuilder11getInsertPtEv(ptr noundef nonnull align 8 dereferenceable(88) %11)
  %13 = getelementptr inbounds nuw %"class.llvm::MachineInstrBundleIterator", ptr %5, i32 0, i32 0
  %14 = getelementptr inbounds nuw %"class.llvm::ilist_iterator", ptr %13, i32 0, i32 0
  store ptr %12, ptr %14, align 8
  %15 = load ptr, ptr %4, align 8
  %16 = call noundef zeroext i1 @_ZN4llvmeqERKNS_26MachineInstrBundleIteratorINS_12MachineInstrELb0EEEPKS1_(ptr noundef nonnull align 8 dereferenceable(8) %5, ptr noundef %15)
  br i1 %16, label %17, label %31

17:                                               ; preds = %2
  %18 = getelementptr inbounds nuw %class.anon.512, ptr %9, i32 0, i32 0
  %19 = load ptr, ptr %18, align 8
  %20 = load ptr, ptr %4, align 8
  %21 = call noundef ptr @_ZN4llvm12MachineInstr9getParentEv(ptr noundef nonnull align 8 dereferenceable(70) %20)
  %22 = load ptr, ptr %4, align 8
  %23 = call ptr @_ZN4llvm15ilist_node_implINS_12ilist_detail12node_optionsINS_12MachineInstrELb1ELb1EvLb0EvEEE11getIteratorEv(ptr noundef nonnull align 8 dereferenceable(16) %22)
  %24 = getelementptr inbounds nuw %"class.llvm::ilist_iterator", ptr %8, i32 0, i32 0
  store ptr %23, ptr %24, align 8
  %25 = call noundef nonnull align 8 dereferenceable(8) ptr @_ZN4llvm14ilist_iteratorINS_12ilist_detail12node_optionsINS_12MachineInstrELb1ELb1EvLb0EvEELb0ELb0EEppEv(ptr noundef nonnull align 8 dereferenceable(8) %8)
  call void @llvm.memcpy.p0.p0.i64(ptr align 8 %7, ptr align 8 %25, i64 8, i1 false)
  %26 = getelementptr inbounds nuw %"class.llvm::ilist_iterator", ptr %7, i32 0, i32 0
  %27 = load ptr, ptr %26, align 8
  call void @_ZN4llvm26MachineInstrBundleIteratorINS_12MachineInstrELb0EEC2ENS_14ilist_iteratorINS_12ilist_detail12node_optionsIS1_Lb1ELb1EvLb0EvEELb0ELb0EEE(ptr noundef nonnull align 8 dereferenceable(8) %6, ptr %27)
  %28 = getelementptr inbounds nuw %"class.llvm::MachineInstrBundleIterator", ptr %6, i32 0, i32 0
  %29 = getelementptr inbounds nuw %"class.llvm::ilist_iterator", ptr %28, i32 0, i32 0
  %30 = load ptr, ptr %29, align 8
  call void @_ZN4llvm16MachineIRBuilder11setInsertPtERNS_17MachineBasicBlockENS_26MachineInstrBundleIteratorINS_12MachineInstrELb0EEE(ptr noundef nonnull align 8 dereferenceable(88) %19, ptr noundef nonnull align 8 dereferenceable(288) %21, ptr %30)
  br label %31

31:                                               ; preds = %17, %2
  %32 = getelementptr inbounds nuw %class.anon.512, ptr %9, i32 0, i32 1
  %33 = load ptr, ptr %32, align 8
  %34 = load ptr, ptr %33, align 8
  %35 = icmp ne ptr %34, null
  br i1 %35, label %36, label %44

36:                                               ; preds = %31
  %37 = getelementptr inbounds nuw %class.anon.512, ptr %9, i32 0, i32 1
  %38 = load ptr, ptr %37, align 8
  %39 = load ptr, ptr %38, align 8
  %40 = load ptr, ptr %4, align 8
  %41 = load ptr, ptr %39, align 8
  %42 = getelementptr inbounds ptr, ptr %41, i64 2
  %43 = load ptr, ptr %42, align 8
  call void %43(ptr noundef nonnull align 8 dereferenceable(72) %39, ptr noundef nonnull align 8 dereferenceable(70) %40)
  br label %44

44:                                               ; preds = %36, %31
  %45 = load ptr, ptr %4, align 8
  call void @_ZN4llvm12MachineInstr15eraseFromParentEv(ptr noundef nonnull align 8 dereferenceable(70) %45)
  ret void
}